target datalayout = "e-m:e-p270:32:32-p271:32:32-p272:64:64-i64:64-i128:128-f80:128-n8:16:32:64-S128"
target triple = "x86_64-pc-linux-gnu"

@_ZZN4Luau26setTypeFunctionEnvironmentEP9lua_StateE18unavailableGlobals = internal global [6 x ptr] [ptr @.str.117, ptr @.str.118, ptr @.str.119, ptr @.str.120, ptr @.str.121, ptr @.str.122], align 16
@.str.123 = private unnamed_addr constant [6 x i8] c"print\00", align 1

; Function Attrs: mustprogress uwtable
define dso_local void @_ZN4Luau26setTypeFunctionEnvironmentEP9lua_State(ptr noundef %0) #3 {
  %2 = alloca ptr, align 8
  %3 = alloca ptr, align 8
  %4 = alloca ptr, align 8
  %5 = alloca ptr, align 8
  %6 = alloca ptr, align 8
  store ptr %0, ptr %2, align 8, !tbaa !25
  %7 = load ptr, ptr %2, align 8, !tbaa !25
  %8 = call noundef i32 @_Z12luaopen_mathP9lua_State(ptr noundef %7)
  %9 = load ptr, ptr %2, align 8, !tbaa !25
  call void @_Z10lua_settopP9lua_Statei(ptr noundef %9, i32 noundef -2)
  %10 = load ptr, ptr %2, align 8, !tbaa !25
  %11 = call noundef i32 @_Z13luaopen_tableP9lua_State(ptr noundef %10)
  %12 = load ptr, ptr %2, align 8, !tbaa !25
  call void @_Z10lua_settopP9lua_Statei(ptr noundef %12, i32 noundef -2)
  %13 = load ptr, ptr %2, align 8, !tbaa !25
  %14 = call noundef i32 @_Z14luaopen_stringP9lua_State(ptr noundef %13)
  %15 = load ptr, ptr %2, align 8, !tbaa !25
  call void @_Z10lua_settopP9lua_Statei(ptr noundef %15, i32 noundef -2)
  %16 = load ptr, ptr %2, align 8, !tbaa !25
  %17 = call noundef i32 @_Z13luaopen_bit32P9lua_State(ptr noundef %16)
  %18 = load ptr, ptr %2, align 8, !tbaa !25
  call void @_Z10lua_settopP9lua_Statei(ptr noundef %18, i32 noundef -2)
  %19 = load ptr, ptr %2, align 8, !tbaa !25
  %20 = call noundef i32 @_Z12luaopen_utf8P9lua_State(ptr noundef %19)
  %21 = load ptr, ptr %2, align 8, !tbaa !25
  call void @_Z10lua_settopP9lua_Statei(ptr noundef %21, i32 noundef -2)
  %22 = load ptr, ptr %2, align 8, !tbaa !25
  %23 = call noundef i32 @_Z14luaopen_bufferP9lua_State(ptr noundef %22)
  %24 = load ptr, ptr %2, align 8, !tbaa !25
  call void @_Z10lua_settopP9lua_Statei(ptr noundef %24, i32 noundef -2)
  %25 = load ptr, ptr %2, align 8, !tbaa !25
  %26 = call noundef i32 @_Z12luaopen_baseP9lua_State(ptr noundef %25)
  %27 = load ptr, ptr %2, align 8, !tbaa !25
  call void @_Z10lua_settopP9lua_Statei(ptr noundef %27, i32 noundef -2)
  call void @llvm.lifetime.start.p0(i64 8, ptr %3) #17
  store ptr @_ZZN4Luau26setTypeFunctionEnvironmentEP9lua_StateE18unavailableGlobals, ptr %3, align 8, !tbaa !142
  call void @llvm.lifetime.start.p0(i64 8, ptr %4) #17
  store ptr @_ZZN4Luau26setTypeFunctionEnvironmentEP9lua_StateE18unavailableGlobals, ptr %4, align 8, !tbaa !142
  call void @llvm.lifetime.start.p0(i64 8, ptr %5) #17
  store ptr getelementptr inbounds (ptr, ptr @_ZZN4Luau26setTypeFunctionEnvironmentEP9lua_StateE18unavailableGlobals, i64 6), ptr %5, align 8, !tbaa !142
  br label %28

28:                                               ; preds = %41, %1
  %29 = load ptr, ptr %4, align 8, !tbaa !142
  %30 = load ptr, ptr %5, align 8, !tbaa !142
  %31 = icmp ne ptr %29, %30
  br i1 %31, label %33, label %32

32:                                               ; preds = %28
  call void @llvm.lifetime.end.p0(i64 8, ptr %5) #17
  call void @llvm.lifetime.end.p0(i64 8, ptr %4) #17
  call void @llvm.lifetime.end.p0(i64 8, ptr %3) #17
  br label %44

33:                                               ; preds = %28
  call void @llvm.lifetime.start.p0(i64 8, ptr %6) #17
  %34 = load ptr, ptr %4, align 8, !tbaa !142
  store ptr %34, ptr %6, align 8, !tbaa !142
  %35 = load ptr, ptr %2, align 8, !tbaa !25
  %36 = load ptr, ptr %6, align 8, !tbaa !142
  %37 = load ptr, ptr %36, align 8, !tbaa !11
  call void @_Z17lua_pushcclosurekP9lua_StatePFiS0_EPKciPFiS0_iE(ptr noundef %35, ptr noundef @_ZN4LuauL19unsupportedFunctionEP9lua_State, ptr noundef %37, i32 noundef 0, ptr noundef null)
  %38 = load ptr, ptr %2, align 8, !tbaa !25
  %39 = load ptr, ptr %6, align 8, !tbaa !142
  %40 = load ptr, ptr %39, align 8, !tbaa !11
  call void @_Z12lua_setfieldP9lua_StateiPKc(ptr noundef %38, i32 noundef -10002, ptr noundef %40)
  call void @llvm.lifetime.end.p0(i64 8, ptr %6) #17
  br label %41

41:                                               ; preds = %33
  %42 = load ptr, ptr %4, align 8, !tbaa !142
  %43 = getelementptr inbounds nuw ptr, ptr %42, i32 1
  store ptr %43, ptr %4, align 8, !tbaa !142
  br label %28

44:                                               ; preds = %32
  %45 = load ptr, ptr %2, align 8, !tbaa !25
  call void @_Z17lua_pushcclosurekP9lua_StatePFiS0_EPKciPFiS0_iE(ptr noundef %45, ptr noundef @_ZN4LuauL5printEP9lua_State, ptr noundef @.str.123, i32 noundef 0, ptr noundef null)
  %46 = load ptr, ptr %2, align 8, !tbaa !25
  call void @_Z12lua_setfieldP9lua_StateiPKc(ptr noundef %46, i32 noundef -10002, ptr noundef @.str.123)
  ret void
}