; Function Attrs: mustprogress uwtable
define dso_local void @_ZN4Luau26setTypeFunctionEnvironmentEP9lua_State(ptr noundef %0) local_unnamed_addr #2 {
  %2 = tail call noundef i32 @_Z12luaopen_mathP9lua_State(ptr noundef %0)
  tail call void @_Z10lua_settopP9lua_Statei(ptr noundef %0, i32 noundef -2)
  %3 = tail call noundef i32 @_Z13luaopen_tableP9lua_State(ptr noundef %0)
  tail call void @_Z10lua_settopP9lua_Statei(ptr noundef %0, i32 noundef -2)
  %4 = tail call noundef i32 @_Z14luaopen_stringP9lua_State(ptr noundef %0)
  tail call void @_Z10lua_settopP9lua_Statei(ptr noundef %0, i32 noundef -2)
  %5 = tail call noundef i32 @_Z13luaopen_bit32P9lua_State(ptr noundef %0)
  tail call void @_Z10lua_settopP9lua_Statei(ptr noundef %0, i32 noundef -2)
  %6 = tail call noundef i32 @_Z12luaopen_utf8P9lua_State(ptr noundef %0)
  tail call void @_Z10lua_settopP9lua_Statei(ptr noundef %0, i32 noundef -2)
  %7 = tail call noundef i32 @_Z14luaopen_bufferP9lua_State(ptr noundef %0)
  tail call void @_Z10lua_settopP9lua_Statei(ptr noundef %0, i32 noundef -2)
  %8 = tail call noundef i32 @_Z12luaopen_baseP9lua_State(ptr noundef %0)
  tail call void @_Z10lua_settopP9lua_Statei(ptr noundef %0, i32 noundef -2)
  br label %10

9:                                                ; preds = %10
  tail call void @_Z17lua_pushcclosurekP9lua_StatePFiS0_EPKciPFiS0_iE(ptr noundef %0, ptr noundef nonnull @_ZN4LuauL5printEP9lua_State, ptr noundef nonnull @.str.123, i32 noundef 0, ptr noundef null)
  tail call void @_Z12lua_setfieldP9lua_StateiPKc(ptr noundef %0, i32 noundef -10002, ptr noundef nonnull @.str.123)
  ret void

10:                                               ; preds = %1, %10
  %.0.idx24 = phi i64 [ 0, %1 ], [ %.0.add, %10 ]
  %.0.ptr = getelementptr inbounds nuw i8, ptr @_ZZN4Luau26setTypeFunctionEnvironmentEP9lua_StateE18unavailableGlobals, i64 %.0.idx24
  %11 = load ptr, ptr %.0.ptr, align 8, !tbaa !122
  tail call void @_Z17lua_pushcclosurekP9lua_StatePFiS0_EPKciPFiS0_iE(ptr noundef %0, ptr noundef nonnull @_ZN4LuauL19unsupportedFunctionEP9lua_State, ptr noundef %11, i32 noundef 0, ptr noundef null)
  tail call void @_Z12lua_setfieldP9lua_StateiPKc(ptr noundef %0, i32 noundef -10002, ptr noundef %11)
  %.0.add = add nuw nsw i64 %.0.idx24, 8
  %.not = icmp eq i64 %.0.add, 48
  br i1 %.not, label %9, label %10
}